; ModuleID = '14/1442.c'
source_filename = "14/1442.c"
target datalayout = "e-m:e-p270:32:32-p271:32:32-p272:64:64-i64:64-f80:128-n8:16:32:64-S128"
target triple = "x86_64-pc-linux-gnu"

%struct.student = type { i32, i32, i32, i32 }

@.str = private unnamed_addr constant [3 x i8] c"%d\00", align 1
@.str.1 = private unnamed_addr constant [9 x i8] c"%d %d %d\00", align 1
@stu = common dso_local global [100000 x %struct.student] zeroinitializer, align 16
@.str.2 = private unnamed_addr constant [19 x i8] c"%d %d\0A%d %d\0A%d %d\0A\00", align 1

; Function Attrs: noinline nounwind uwtable
define dso_local i32 @main() #0 {
  %1 = alloca i32, align 4
  %2 = alloca i32, align 4
  %3 = alloca i32, align 4
  %4 = alloca i32, align 4
  %5 = alloca i32, align 4
  %6 = alloca i32, align 4
  store i32 0, i32* %1, align 4
  %7 = call i32 (i8*, ...) @__isoc99_scanf(i8* getelementptr inbounds ([3 x i8], [3 x i8]* @.str, i64 0, i64 0), i32* %2)
  store i32 0, i32* %3, align 4
  br label %8

8:                                                ; preds = %41, %0
  %9 = load i32, i32* %3, align 4
  %10 = load i32, i32* %2, align 4
  %11 = icmp slt i32 %9, %10
  br i1 %11, label %12, label %44

12:                                               ; preds = %8
  %13 = load i32, i32* %3, align 4
  %14 = sext i32 %13 to i64
  %15 = getelementptr inbounds [100000 x %struct.student], [100000 x %struct.student]* @stu, i64 0, i64 %14
  %16 = getelementptr inbounds %struct.student, %struct.student* %15, i32 0, i32 0
  %17 = load i32, i32* %3, align 4
  %18 = sext i32 %17 to i64
  %19 = getelementptr inbounds [100000 x %struct.student], [100000 x %struct.student]* @stu, i64 0, i64 %18
  %20 = getelementptr inbounds %struct.student, %struct.student* %19, i32 0, i32 1
  %21 = load i32, i32* %3, align 4
  %22 = sext i32 %21 to i64
  %23 = getelementptr inbounds [100000 x %struct.student], [100000 x %struct.student]* @stu, i64 0, i64 %22
  %24 = getelementptr inbounds %struct.student, %struct.student* %23, i32 0, i32 2
  %25 = call i32 (i8*, ...) @__isoc99_scanf(i8* getelementptr inbounds ([9 x i8], [9 x i8]* @.str.1, i64 0, i64 0), i32* %16, i32* %20, i32* %24)
  %26 = load i32, i32* %3, align 4
  %27 = sext i32 %26 to i64
  %28 = getelementptr inbounds [100000 x %struct.student], [100000 x %struct.student]* @stu, i64 0, i64 %27
  %29 = getelementptr inbounds %struct.student, %struct.student* %28, i32 0, i32 1
  %30 = load i32, i32* %29, align 4
  %31 = load i32, i32* %3, align 4
  %32 = sext i32 %31 to i64
  %33 = getelementptr inbounds [100000 x %struct.student], [100000 x %struct.student]* @stu, i64 0, i64 %32
  %34 = getelementptr inbounds %struct.student, %struct.student* %33, i32 0, i32 2
  %35 = load i32, i32* %34, align 8
  %36 = add nsw i32 %30, %35
  %37 = load i32, i32* %3, align 4
  %38 = sext i32 %37 to i64
  %39 = getelementptr inbounds [100000 x %struct.student], [100000 x %struct.student]* @stu, i64 0, i64 %38
  %40 = getelementptr inbounds %struct.student, %struct.student* %39, i32 0, i32 3
  store i32 %36, i32* %40, align 4
  br label %41

41:                                               ; preds = %12
  %42 = load i32, i32* %3, align 4
  %43 = add nsw i32 %42, 1
  store i32 %43, i32* %3, align 4
  br label %8

44:                                               ; preds = %8
  %45 = load i32, i32* getelementptr inbounds ([100000 x %struct.student], [100000 x %struct.student]* @stu, i64 0, i64 0, i32 3), align 4
  %46 = load i32, i32* getelementptr inbounds ([100000 x %struct.student], [100000 x %struct.student]* @stu, i64 0, i64 1, i32 3), align 4
  %47 = icmp sge i32 %45, %46
  br i1 %47, label %48, label %61

48:                                               ; preds = %44
  %49 = load i32, i32* getelementptr inbounds ([100000 x %struct.student], [100000 x %struct.student]* @stu, i64 0, i64 1, i32 3), align 4
  %50 = load i32, i32* getelementptr inbounds ([100000 x %struct.student], [100000 x %struct.student]* @stu, i64 0, i64 2, i32 3), align 4
  %51 = icmp sge i32 %49, %50
  br i1 %51, label %52, label %53

52:                                               ; preds = %48
  store i32 0, i32* %4, align 4
  store i32 1, i32* %5, align 4
  store i32 2, i32* %6, align 4
  br label %60

53:                                               ; preds = %48
  %54 = load i32, i32* getelementptr inbounds ([100000 x %struct.student], [100000 x %struct.student]* @stu, i64 0, i64 0, i32 3), align 4
  %55 = load i32, i32* getelementptr inbounds ([100000 x %struct.student], [100000 x %struct.student]* @stu, i64 0, i64 2, i32 3), align 4
  %56 = icmp sge i32 %54, %55
  br i1 %56, label %57, label %58

57:                                               ; preds = %53
  store i32 0, i32* %4, align 4
  store i32 2, i32* %5, align 4
  store i32 1, i32* %6, align 4
  br label %59

58:                                               ; preds = %53
  store i32 2, i32* %4, align 4
  store i32 0, i32* %5, align 4
  store i32 1, i32* %6, align 4
  br label %59

59:                                               ; preds = %58, %57
  br label %60

60:                                               ; preds = %59, %52
  br label %74

61:                                               ; preds = %44
  %62 = load i32, i32* getelementptr inbounds ([100000 x %struct.student], [100000 x %struct.student]* @stu, i64 0, i64 0, i32 3), align 4
  %63 = load i32, i32* getelementptr inbounds ([100000 x %struct.student], [100000 x %struct.student]* @stu, i64 0, i64 2, i32 3), align 4
  %64 = icmp sge i32 %62, %63
  br i1 %64, label %65, label %66

65:                                               ; preds = %61
  store i32 1, i32* %4, align 4
  store i32 0, i32* %5, align 4
  store i32 2, i32* %6, align 4
  br label %73

66:                                               ; preds = %61
  %67 = load i32, i32* getelementptr inbounds ([100000 x %struct.student], [100000 x %struct.student]* @stu, i64 0, i64 1, i32 3), align 4
  %68 = load i32, i32* getelementptr inbounds ([100000 x %struct.student], [100000 x %struct.student]* @stu, i64 0, i64 2, i32 3), align 4
  %69 = icmp sge i32 %67, %68
  br i1 %69, label %70, label %71

70:                                               ; preds = %66
  store i32 1, i32* %4, align 4
  store i32 2, i32* %5, align 4
  store i32 0, i32* %6, align 4
  br label %72

71:                                               ; preds = %66
  store i32 2, i32* %4, align 4
  store i32 1, i32* %5, align 4
  store i32 0, i32* %6, align 4
  br label %72

72:                                               ; preds = %71, %70
  br label %73

73:                                               ; preds = %72, %65
  br label %74

74:                                               ; preds = %73, %60
  store i32 3, i32* %3, align 4
  br label %75

75:                                               ; preds = %127, %74
  %76 = load i32, i32* %3, align 4
  %77 = load i32, i32* %2, align 4
  %78 = icmp slt i32 %76, %77
  br i1 %78, label %79, label %130

79:                                               ; preds = %75
  %80 = load i32, i32* %3, align 4
  %81 = sext i32 %80 to i64
  %82 = getelementptr inbounds [100000 x %struct.student], [100000 x %struct.student]* @stu, i64 0, i64 %81
  %83 = getelementptr inbounds %struct.student, %struct.student* %82, i32 0, i32 3
  %84 = load i32, i32* %83, align 4
  %85 = load i32, i32* %4, align 4
  %86 = sext i32 %85 to i64
  %87 = getelementptr inbounds [100000 x %struct.student], [100000 x %struct.student]* @stu, i64 0, i64 %86
  %88 = getelementptr inbounds %struct.student, %struct.student* %87, i32 0, i32 3
  %89 = load i32, i32* %88, align 4
  %90 = icmp sgt i32 %84, %89
  br i1 %90, label %91, label %95

91:                                               ; preds = %79
  %92 = load i32, i32* %5, align 4
  store i32 %92, i32* %6, align 4
  %93 = load i32, i32* %4, align 4
  store i32 %93, i32* %5, align 4
  %94 = load i32, i32* %3, align 4
  store i32 %94, i32* %4, align 4
  br label %126

95:                                               ; preds = %79
  %96 = load i32, i32* %3, align 4
  %97 = sext i32 %96 to i64
  %98 = getelementptr inbounds [100000 x %struct.student], [100000 x %struct.student]* @stu, i64 0, i64 %97
  %99 = getelementptr inbounds %struct.student, %struct.student* %98, i32 0, i32 3
  %100 = load i32, i32* %99, align 4
  %101 = load i32, i32* %5, align 4
  %102 = sext i32 %101 to i64
  %103 = getelementptr inbounds [100000 x %struct.student], [100000 x %struct.student]* @stu, i64 0, i64 %102
  %104 = getelementptr inbounds %struct.student, %struct.student* %103, i32 0, i32 3
  %105 = load i32, i32* %104, align 4
  %106 = icmp sgt i32 %100, %105
  br i1 %106, label %107, label %110

107:                                              ; preds = %95
  %108 = load i32, i32* %5, align 4
  store i32 %108, i32* %6, align 4
  %109 = load i32, i32* %3, align 4
  store i32 %109, i32* %5, align 4
  br label %125

110:                                              ; preds = %95
  %111 = load i32, i32* %3, align 4
  %112 = sext i32 %111 to i64
  %113 = getelementptr inbounds [100000 x %struct.student], [100000 x %struct.student]* @stu, i64 0, i64 %112
  %114 = getelementptr inbounds %struct.student, %struct.student* %113, i32 0, i32 3
  %115 = load i32, i32* %114, align 4
  %116 = load i32, i32* %6, align 4
  %117 = sext i32 %116 to i64
  %118 = getelementptr inbounds [100000 x %struct.student], [100000 x %struct.student]* @stu, i64 0, i64 %117
  %119 = getelementptr inbounds %struct.student, %struct.student* %118, i32 0, i32 3
  %120 = load i32, i32* %119, align 4
  %121 = icmp sgt i32 %115, %120
  br i1 %121, label %122, label %124

122:                                              ; preds = %110
  %123 = load i32, i32* %3, align 4
  store i32 %123, i32* %6, align 4
  br label %124

124:                                              ; preds = %122, %110
  br label %125

125:                                              ; preds = %124, %107
  br label %126

126:                                              ; preds = %125, %91
  br label %127

127:                                              ; preds = %126
  %128 = load i32, i32* %3, align 4
  %129 = add nsw i32 %128, 1
  store i32 %129, i32* %3, align 4
  br label %75

130:                                              ; preds = %75
  %131 = load i32, i32* %4, align 4
  %132 = sext i32 %131 to i64
  %133 = getelementptr inbounds [100000 x %struct.student], [100000 x %struct.student]* @stu, i64 0, i64 %132
  %134 = getelementptr inbounds %struct.student, %struct.student* %133, i32 0, i32 0
  %135 = load i32, i32* %134, align 16
  %136 = load i32, i32* %4, align 4
  %137 = sext i32 %136 to i64
  %138 = getelementptr inbounds [100000 x %struct.student], [100000 x %struct.student]* @stu, i64 0, i64 %137
  %139 = getelementptr inbounds %struct.student, %struct.student* %138, i32 0, i32 3
  %140 = load i32, i32* %139, align 4
  %141 = load i32, i32* %5, align 4
  %142 = sext i32 %141 to i64
  %143 = getelementptr inbounds [100000 x %struct.student], [100000 x %struct.student]* @stu, i64 0, i64 %142
  %144 = getelementptr inbounds %struct.student, %struct.student* %143, i32 0, i32 0
  %145 = load i32, i32* %144, align 16
  %146 = load i32, i32* %5, align 4
  %147 = sext i32 %146 to i64
  %148 = getelementptr inbounds [100000 x %struct.student], [100000 x %struct.student]* @stu, i64 0, i64 %147
  %149 = getelementptr inbounds %struct.student, %struct.student* %148, i32 0, i32 3
  %150 = load i32, i32* %149, align 4
  %151 = load i32, i32* %6, align 4
  %152 = sext i32 %151 to i64
  %153 = getelementptr inbounds [100000 x %struct.student], [100000 x %struct.student]* @stu, i64 0, i64 %152
  %154 = getelementptr inbounds %struct.student, %struct.student* %153, i32 0, i32 0
  %155 = load i32, i32* %154, align 16
  %156 = load i32, i32* %6, align 4
  %157 = sext i32 %156 to i64
  %158 = getelementptr inbounds [100000 x %struct.student], [100000 x %struct.student]* @stu, i64 0, i64 %157
  %159 = getelementptr inbounds %struct.student, %struct.student* %158, i32 0, i32 3
  %160 = load i32, i32* %159, align 4
  %161 = call i32 (i8*, ...) @printf(i8* getelementptr inbounds ([19 x i8], [19 x i8]* @.str.2, i64 0, i64 0), i32 %135, i32 %140, i32 %145, i32 %150, i32 %155, i32 %160)
  %162 = load i32, i32* %1, align 4
  ret i32 %162
}

declare dso_local i32 @__isoc99_scanf(i8*, ...) #1

declare dso_local i32 @printf(i8*, ...) #1


!llvm.module.flags = !{!0}
!llvm.ident = !{!1}

!0 = !{i32 1, !"wchar_size", i32 4}
!1 = !{!"clang version 10.0.0-4ubuntu1 "}
